target datalayout = "e-m:e-p270:32:32-p271:32:32-p272:64:64-i64:64-i128:128-f80:128-n8:16:32:64-S128"
target triple = "x86_64-pc-linux-gnu"

@hf_gsm_bssmap_le_location_inf = internal global i32 0, align 4
@hf_gsm_bssmap_le_pos_method = internal global i32 0, align 4

; Function Attrs: null_pointer_is_valid sspstrong uwtable
define internal zeroext i16 @de_bmaple_location_type(ptr noundef %0, ptr noundef %1, ptr noundef %2, i32 noundef %3, i32 noundef %4, ptr noundef %5, i32 noundef %6) #1 {
  %8 = alloca i16, align 2
  %9 = alloca ptr, align 8
  %10 = alloca ptr, align 8
  %11 = alloca ptr, align 8
  %12 = alloca i32, align 4
  %13 = alloca i32, align 4
  %14 = alloca ptr, align 8
  %15 = alloca i32, align 4
  %16 = alloca i32, align 4
  %17 = alloca i32, align 4
  store ptr %0, ptr %9, align 8
  store ptr %1, ptr %10, align 8
  store ptr %2, ptr %11, align 8
  store i32 %3, ptr %12, align 4
  store i32 %4, ptr %13, align 4
  store ptr %5, ptr %14, align 8
  store i32 %6, ptr %15, align 4
  call void @llvm.lifetime.start.p0(i64 4, ptr %16) #3
  %18 = load i32, ptr %12, align 4
  store i32 %18, ptr %16, align 4
  %19 = load ptr, ptr %10, align 8
  %20 = load i32, ptr @hf_gsm_bssmap_le_location_inf, align 4
  %21 = load ptr, ptr %9, align 8
  %22 = load i32, ptr %16, align 4
  %23 = call ptr @proto_tree_add_item(ptr noundef %19, i32 noundef %20, ptr noundef %21, i32 noundef %22, i32 noundef 1, i32 noundef 0)
  %24 = load i32, ptr %16, align 4
  %25 = add i32 %24, 1
  store i32 %25, ptr %16, align 4
  %26 = load i32, ptr %13, align 4
  %27 = icmp eq i32 %26, 1
  br i1 %27, label %28, label %31

28:                                               ; preds = %7
  %29 = load i32, ptr %13, align 4
  %30 = trunc i32 %29 to i16
  store i16 %30, ptr %8, align 2
  store i32 1, ptr %17, align 4
  br label %43

31:                                               ; preds = %7
  %32 = load ptr, ptr %10, align 8
  %33 = load i32, ptr @hf_gsm_bssmap_le_pos_method, align 4
  %34 = load ptr, ptr %9, align 8
  %35 = load i32, ptr %16, align 4
  %36 = call ptr @proto_tree_add_item(ptr noundef %32, i32 noundef %33, ptr noundef %34, i32 noundef %35, i32 noundef 1, i32 noundef 0)
  %37 = load i32, ptr %16, align 4
  %38 = add i32 %37, 1
  store i32 %38, ptr %16, align 4
  %39 = load i32, ptr %16, align 4
  %40 = load i32, ptr %12, align 4
  %41 = sub i32 %39, %40
  %42 = trunc i32 %41 to i16
  store i16 %42, ptr %8, align 2
  store i32 1, ptr %17, align 4
  br label %43

43:                                               ; preds = %31, %28
  call void @llvm.lifetime.end.p0(i64 4, ptr %16) #3
  %44 = load i16, ptr %8, align 2
  ret i16 %44
}