; Function Attrs: null_pointer_is_valid sspstrong uwtable
define internal zeroext range(i16 1, 3) i16 @de_bmaple_location_type(ptr noundef %0, ptr noundef %1, ptr readnone captures(none) %2, i32 noundef %3, i32 noundef %4, ptr readnone captures(none) %5, i32 %6) #1 {
  %8 = load i32, ptr @hf_gsm_bssmap_le_location_inf, align 4
  %9 = tail call ptr @proto_tree_add_item(ptr noundef %1, i32 noundef %8, ptr noundef %0, i32 noundef %3, i32 noundef 1, i32 noundef 0)
  %10 = icmp eq i32 %4, 1
  br i1 %10, label %15, label %11

11:                                               ; preds = %7
  %12 = add i32 %3, 1
  %13 = load i32, ptr @hf_gsm_bssmap_le_pos_method, align 4
  %14 = tail call ptr @proto_tree_add_item(ptr noundef %1, i32 noundef %13, ptr noundef %0, i32 noundef %12, i32 noundef 1, i32 noundef 0)
  br label %15

15:                                               ; preds = %7, %11
  %.0 = phi i16 [ 2, %11 ], [ 1, %7 ]
  ret i16 %.0
}